target datalayout = "e-m:e-p270:32:32-p271:32:32-p272:64:64-i64:64-i128:128-f80:128-n8:16:32:64-S128"
target triple = "x86_64-pc-linux-gnu"

@dry_run = external global i8, align 1
@dstfd = internal global i32 -1, align 4
@dstpath = internal global [1024 x i8] zeroinitializer, align 16
@fetch_done = external global i64, align 8
@.str.3 = private unnamed_addr constant [39 x i8] c"could not seek in target file \22%s\22: %m\00", align 1
@.str.4 = private unnamed_addr constant [30 x i8] c"could not write file \22%s\22: %m\00", align 1

; Function Attrs: nounwind uwtable
define dso_local void @write_target_range(ptr noundef %0, i64 noundef %1, i64 noundef %2) #0 {
  %4 = alloca ptr, align 8
  %5 = alloca i64, align 8
  %6 = alloca i64, align 8
  %7 = alloca i64, align 8
  %8 = alloca ptr, align 8
  %9 = alloca i32, align 4
  %10 = alloca i64, align 8
  store ptr %0, ptr %4, align 8
  store i64 %1, ptr %5, align 8
  store i64 %2, ptr %6, align 8
  call void @llvm.lifetime.start.p0(i64 8, ptr %7) #7
  call void @llvm.lifetime.start.p0(i64 8, ptr %8) #7
  %11 = load i64, ptr %6, align 8
  %12 = load i64, ptr @fetch_done, align 8
  %13 = add i64 %12, %11
  store i64 %13, ptr @fetch_done, align 8
  call void @progress_report(i1 noundef zeroext false)
  %14 = load i8, ptr @dry_run, align 1, !range !4, !noundef !5
  %15 = trunc i8 %14 to i1
  br i1 %15, label %16, label %17

16:                                               ; preds = %3
  store i32 1, ptr %9, align 4
  br label %58

17:                                               ; preds = %3
  %18 = load i32, ptr @dstfd, align 4
  %19 = load i64, ptr %5, align 8
  %20 = call i64 @lseek(i32 noundef %18, i64 noundef %19, i32 noundef 0) #7
  %21 = icmp eq i64 %20, -1
  br i1 %21, label %22, label %26

22:                                               ; preds = %17
  br label %23

23:                                               ; preds = %22
  call void (i32, i32, ptr, ...) @pg_log_generic(i32 noundef 4, i32 noundef 0, ptr noundef @.str.3, ptr noundef @dstpath)
  call void @exit(i32 noundef 1) #9
  unreachable

24:                                               ; No predecessors!
  br label %25

25:                                               ; preds = %24
  br label %26

26:                                               ; preds = %25, %17
  %27 = load i64, ptr %6, align 8
  store i64 %27, ptr %7, align 8
  %28 = load ptr, ptr %4, align 8
  store ptr %28, ptr %8, align 8
  br label %29

29:                                               ; preds = %50, %26
  %30 = load i64, ptr %7, align 8
  %31 = icmp ugt i64 %30, 0
  br i1 %31, label %32, label %57

32:                                               ; preds = %29
  call void @llvm.lifetime.start.p0(i64 8, ptr %10) #7
  %33 = call ptr @__errno_location() #10
  store i32 0, ptr %33, align 4
  %34 = load i32, ptr @dstfd, align 4
  %35 = load ptr, ptr %8, align 8
  %36 = load i64, ptr %7, align 8
  %37 = call i64 @write(i32 noundef %34, ptr noundef %35, i64 noundef %36)
  store i64 %37, ptr %10, align 8
  %38 = load i64, ptr %10, align 8
  %39 = icmp slt i64 %38, 0
  br i1 %39, label %40, label %50

40:                                               ; preds = %32
  %41 = call ptr @__errno_location() #10
  %42 = load i32, ptr %41, align 4
  %43 = icmp eq i32 %42, 0
  br i1 %43, label %44, label %46

44:                                               ; preds = %40
  %45 = call ptr @__errno_location() #10
  store i32 28, ptr %45, align 4
  br label %46

46:                                               ; preds = %44, %40
  br label %47

47:                                               ; preds = %46
  call void (i32, i32, ptr, ...) @pg_log_generic(i32 noundef 4, i32 noundef 0, ptr noundef @.str.4, ptr noundef @dstpath)
  call void @exit(i32 noundef 1) #9
  unreachable

48:                                               ; No predecessors!
  br label %49

49:                                               ; preds = %48
  br label %50

50:                                               ; preds = %49, %32
  %51 = load i64, ptr %10, align 8
  %52 = load ptr, ptr %8, align 8
  %53 = getelementptr inbounds i8, ptr %52, i64 %51
  store ptr %53, ptr %8, align 8
  %54 = load i64, ptr %10, align 8
  %55 = load i64, ptr %7, align 8
  %56 = sub i64 %55, %54
  store i64 %56, ptr %7, align 8
  call void @llvm.lifetime.end.p0(i64 8, ptr %10) #7
  br label %29, !llvm.loop !6

57:                                               ; preds = %29
  store i32 0, ptr %9, align 4
  br label %58

58:                                               ; preds = %57, %16
  call void @llvm.lifetime.end.p0(i64 8, ptr %8) #7
  call void @llvm.lifetime.end.p0(i64 8, ptr %7) #7
  %59 = load i32, ptr %9, align 4
  switch i32 %59, label %61 [
    i32 0, label %60
    i32 1, label %60
  ]

60:                                               ; preds = %58, %58
  ret void

61:                                               ; preds = %58
  unreachable
}