; Function Attrs: nounwind uwtable
define dso_local void @write_target_range(ptr noundef readonly captures(none) %0, i64 noundef %1, i64 noundef %2) local_unnamed_addr #0 {
  %4 = load i64, ptr @fetch_done, align 8
  %5 = add i64 %4, %2
  store i64 %5, ptr @fetch_done, align 8
  tail call void @progress_report(i1 noundef zeroext false) #11
  %6 = load i8, ptr @dry_run, align 1, !range !4, !noundef !5
  %7 = trunc nuw i8 %6 to i1
  br i1 %7, label %.loopexit, label %8

8:                                                ; preds = %3
  %9 = load i32, ptr @dstfd, align 4
  %10 = tail call i64 @lseek(i32 noundef %9, i64 noundef %1, i32 noundef 0) #11
  %11 = icmp eq i64 %10, -1
  br i1 %11, label %13, label %.preheader

.preheader:                                       ; preds = %8
  %.not13 = icmp eq i64 %2, 0
  br i1 %.not13, label %.loopexit, label %.lr.ph

.lr.ph:                                           ; preds = %.preheader
  %12 = tail call ptr @__errno_location() #13
  br label %14

13:                                               ; preds = %8
  tail call void (i32, i32, ptr, ...) @pg_log_generic(i32 noundef 4, i32 noundef 0, ptr noundef nonnull @.str.3, ptr noundef nonnull @dstpath) #11
  tail call void @exit(i32 noundef 1) #12
  unreachable

14:                                               ; preds = %.lr.ph, %23
  %.015 = phi i64 [ %2, %.lr.ph ], [ %25, %23 ]
  %.01114 = phi ptr [ %0, %.lr.ph ], [ %24, %23 ]
  store i32 0, ptr %12, align 4
  %15 = load i32, ptr @dstfd, align 4
  %16 = tail call i64 @write(i32 noundef %15, ptr noundef %.01114, i64 noundef %.015) #11
  %17 = icmp slt i64 %16, 0
  br i1 %17, label %18, label %23

18:                                               ; preds = %14
  %19 = load i32, ptr %12, align 4
  %20 = icmp eq i32 %19, 0
  br i1 %20, label %21, label %22

21:                                               ; preds = %18
  store i32 28, ptr %12, align 4
  br label %22

22:                                               ; preds = %18, %21
  tail call void (i32, i32, ptr, ...) @pg_log_generic(i32 noundef 4, i32 noundef 0, ptr noundef nonnull @.str.4, ptr noundef nonnull @dstpath) #11
  tail call void @exit(i32 noundef 1) #12
  unreachable

23:                                               ; preds = %14
  %24 = getelementptr inbounds nuw i8, ptr %.01114, i64 %16
  %25 = sub i64 %.015, %16
  %.not = icmp eq i64 %25, 0
  br i1 %.not, label %.loopexit, label %14, !llvm.loop !6

.loopexit:                                        ; preds = %23, %.preheader, %3
  ret void
}